; ModuleID = '46/664.c'
source_filename = "46/664.c"
target datalayout = "e-m:e-p270:32:32-p271:32:32-p272:64:64-i64:64-f80:128-n8:16:32:64-S128"
target triple = "x86_64-pc-linux-gnu"

@.str = private unnamed_addr constant [5 x i8] c"%d%d\00", align 1
@.str.1 = private unnamed_addr constant [3 x i8] c"%d\00", align 1
@.str.2 = private unnamed_addr constant [4 x i8] c"%d\0A\00", align 1

; Function Attrs: noinline nounwind uwtable
define dso_local void @main() #0 {
  %1 = alloca i32, align 4
  %2 = alloca i32, align 4
  %3 = alloca i32, align 4
  %4 = alloca i32, align 4
  %5 = alloca i32, align 4
  %6 = alloca [100 x [100 x i32]], align 16
  %7 = alloca i32, align 4
  store i32 0, i32* %5, align 4
  %8 = call i32 (i8*, ...) @__isoc99_scanf(i8* getelementptr inbounds ([5 x i8], [5 x i8]* @.str, i64 0, i64 0), i32* %3, i32* %4)
  store i32 0, i32* %1, align 4
  br label %9

9:                                                ; preds = %30, %0
  %10 = load i32, i32* %1, align 4
  %11 = load i32, i32* %3, align 4
  %12 = icmp slt i32 %10, %11
  br i1 %12, label %13, label %33

13:                                               ; preds = %9
  store i32 0, i32* %2, align 4
  br label %14

14:                                               ; preds = %26, %13
  %15 = load i32, i32* %2, align 4
  %16 = load i32, i32* %4, align 4
  %17 = icmp slt i32 %15, %16
  br i1 %17, label %18, label %29

18:                                               ; preds = %14
  %19 = load i32, i32* %1, align 4
  %20 = sext i32 %19 to i64
  %21 = getelementptr inbounds [100 x [100 x i32]], [100 x [100 x i32]]* %6, i64 0, i64 %20
  %22 = load i32, i32* %2, align 4
  %23 = sext i32 %22 to i64
  %24 = getelementptr inbounds [100 x i32], [100 x i32]* %21, i64 0, i64 %23
  %25 = call i32 (i8*, ...) @__isoc99_scanf(i8* getelementptr inbounds ([3 x i8], [3 x i8]* @.str.1, i64 0, i64 0), i32* %24)
  br label %26

26:                                               ; preds = %18
  %27 = load i32, i32* %2, align 4
  %28 = add nsw i32 %27, 1
  store i32 %28, i32* %2, align 4
  br label %14

29:                                               ; preds = %14
  br label %30

30:                                               ; preds = %29
  %31 = load i32, i32* %1, align 4
  %32 = add nsw i32 %31, 1
  store i32 %32, i32* %1, align 4
  br label %9

33:                                               ; preds = %9
  %34 = load i32, i32* %3, align 4
  %35 = load i32, i32* %4, align 4
  %36 = mul nsw i32 %34, %35
  store i32 %36, i32* %7, align 4
  store i32 0, i32* %1, align 4
  br label %37

37:                                               ; preds = %158, %33
  %38 = load i32, i32* %1, align 4
  store i32 %38, i32* %2, align 4
  br label %39

39:                                               ; preds = %57, %37
  %40 = load i32, i32* %2, align 4
  %41 = load i32, i32* %4, align 4
  %42 = sub nsw i32 %41, 1
  %43 = load i32, i32* %1, align 4
  %44 = sub nsw i32 %42, %43
  %45 = icmp sle i32 %40, %44
  br i1 %45, label %46, label %60

46:                                               ; preds = %39
  %47 = load i32, i32* %1, align 4
  %48 = sext i32 %47 to i64
  %49 = getelementptr inbounds [100 x [100 x i32]], [100 x [100 x i32]]* %6, i64 0, i64 %48
  %50 = load i32, i32* %2, align 4
  %51 = sext i32 %50 to i64
  %52 = getelementptr inbounds [100 x i32], [100 x i32]* %49, i64 0, i64 %51
  %53 = load i32, i32* %52, align 4
  %54 = call i32 (i8*, ...) @printf(i8* getelementptr inbounds ([4 x i8], [4 x i8]* @.str.2, i64 0, i64 0), i32 %53)
  %55 = load i32, i32* %5, align 4
  %56 = add nsw i32 %55, 1
  store i32 %56, i32* %5, align 4
  br label %57

57:                                               ; preds = %46
  %58 = load i32, i32* %2, align 4
  %59 = add nsw i32 %58, 1
  store i32 %59, i32* %2, align 4
  br label %39

60:                                               ; preds = %39
  %61 = load i32, i32* %5, align 4
  %62 = load i32, i32* %7, align 4
  %63 = icmp eq i32 %61, %62
  br i1 %63, label %64, label %65

64:                                               ; preds = %60
  br label %161

65:                                               ; preds = %60
  %66 = load i32, i32* %1, align 4
  %67 = add nsw i32 %66, 1
  store i32 %67, i32* %2, align 4
  br label %68

68:                                               ; preds = %89, %65
  %69 = load i32, i32* %2, align 4
  %70 = load i32, i32* %3, align 4
  %71 = sub nsw i32 %70, 1
  %72 = load i32, i32* %1, align 4
  %73 = sub nsw i32 %71, %72
  %74 = icmp sle i32 %69, %73
  br i1 %74, label %75, label %92

75:                                               ; preds = %68
  %76 = load i32, i32* %2, align 4
  %77 = sext i32 %76 to i64
  %78 = getelementptr inbounds [100 x [100 x i32]], [100 x [100 x i32]]* %6, i64 0, i64 %77
  %79 = load i32, i32* %4, align 4
  %80 = load i32, i32* %1, align 4
  %81 = sub nsw i32 %79, %80
  %82 = sub nsw i32 %81, 1
  %83 = sext i32 %82 to i64
  %84 = getelementptr inbounds [100 x i32], [100 x i32]* %78, i64 0, i64 %83
  %85 = load i32, i32* %84, align 4
  %86 = call i32 (i8*, ...) @printf(i8* getelementptr inbounds ([4 x i8], [4 x i8]* @.str.2, i64 0, i64 0), i32 %85)
  %87 = load i32, i32* %5, align 4
  %88 = add nsw i32 %87, 1
  store i32 %88, i32* %5, align 4
  br label %89

89:                                               ; preds = %75
  %90 = load i32, i32* %2, align 4
  %91 = add nsw i32 %90, 1
  store i32 %91, i32* %2, align 4
  br label %68

92:                                               ; preds = %68
  %93 = load i32, i32* %5, align 4
  %94 = load i32, i32* %7, align 4
  %95 = icmp eq i32 %93, %94
  br i1 %95, label %96, label %97

96:                                               ; preds = %92
  br label %161

97:                                               ; preds = %92
  %98 = load i32, i32* %4, align 4
  %99 = load i32, i32* %1, align 4
  %100 = sub nsw i32 %98, %99
  %101 = sub nsw i32 %100, 2
  store i32 %101, i32* %2, align 4
  br label %102

102:                                              ; preds = %120, %97
  %103 = load i32, i32* %2, align 4
  %104 = load i32, i32* %1, align 4
  %105 = icmp sge i32 %103, %104
  br i1 %105, label %106, label %123

106:                                              ; preds = %102
  %107 = load i32, i32* %3, align 4
  %108 = sub nsw i32 %107, 1
  %109 = load i32, i32* %1, align 4
  %110 = sub nsw i32 %108, %109
  %111 = sext i32 %110 to i64
  %112 = getelementptr inbounds [100 x [100 x i32]], [100 x [100 x i32]]* %6, i64 0, i64 %111
  %113 = load i32, i32* %2, align 4
  %114 = sext i32 %113 to i64
  %115 = getelementptr inbounds [100 x i32], [100 x i32]* %112, i64 0, i64 %114
  %116 = load i32, i32* %115, align 4
  %117 = call i32 (i8*, ...) @printf(i8* getelementptr inbounds ([4 x i8], [4 x i8]* @.str.2, i64 0, i64 0), i32 %116)
  %118 = load i32, i32* %5, align 4
  %119 = add nsw i32 %118, 1
  store i32 %119, i32* %5, align 4
  br label %120

120:                                              ; preds = %106
  %121 = load i32, i32* %2, align 4
  %122 = add nsw i32 %121, -1
  store i32 %122, i32* %2, align 4
  br label %102

123:                                              ; preds = %102
  %124 = load i32, i32* %5, align 4
  %125 = load i32, i32* %7, align 4
  %126 = icmp eq i32 %124, %125
  br i1 %126, label %127, label %128

127:                                              ; preds = %123
  br label %161

128:                                              ; preds = %123
  %129 = load i32, i32* %3, align 4
  %130 = load i32, i32* %1, align 4
  %131 = sub nsw i32 %129, %130
  %132 = sub nsw i32 %131, 2
  store i32 %132, i32* %2, align 4
  br label %133

133:                                              ; preds = %149, %128
  %134 = load i32, i32* %2, align 4
  %135 = load i32, i32* %1, align 4
  %136 = add nsw i32 %135, 1
  %137 = icmp sge i32 %134, %136
  br i1 %137, label %138, label %152

138:                                              ; preds = %133
  %139 = load i32, i32* %2, align 4
  %140 = sext i32 %139 to i64
  %141 = getelementptr inbounds [100 x [100 x i32]], [100 x [100 x i32]]* %6, i64 0, i64 %140
  %142 = load i32, i32* %1, align 4
  %143 = sext i32 %142 to i64
  %144 = getelementptr inbounds [100 x i32], [100 x i32]* %141, i64 0, i64 %143
  %145 = load i32, i32* %144, align 4
  %146 = call i32 (i8*, ...) @printf(i8* getelementptr inbounds ([4 x i8], [4 x i8]* @.str.2, i64 0, i64 0), i32 %145)
  %147 = load i32, i32* %5, align 4
  %148 = add nsw i32 %147, 1
  store i32 %148, i32* %5, align 4
  br label %149

149:                                              ; preds = %138
  %150 = load i32, i32* %2, align 4
  %151 = add nsw i32 %150, -1
  store i32 %151, i32* %2, align 4
  br label %133

152:                                              ; preds = %133
  %153 = load i32, i32* %5, align 4
  %154 = load i32, i32* %7, align 4
  %155 = icmp eq i32 %153, %154
  br i1 %155, label %156, label %157

156:                                              ; preds = %152
  br label %161

157:                                              ; preds = %152
  br label %158

158:                                              ; preds = %157
  %159 = load i32, i32* %1, align 4
  %160 = add nsw i32 %159, 1
  store i32 %160, i32* %1, align 4
  br label %37

161:                                              ; preds = %156, %127, %96, %64
  ret void
}

declare dso_local i32 @__isoc99_scanf(i8*, ...) #1

declare dso_local i32 @printf(i8*, ...) #1


!llvm.module.flags = !{!0}
!llvm.ident = !{!1}

!0 = !{i32 1, !"wchar_size", i32 4}
!1 = !{!"clang version 10.0.0-4ubuntu1 "}
